; Function Attrs: mustprogress uwtable
define void @_ZNK32pxrInternal_v0_24__pxrReserved__10PcpNodeRef16GetChildrenRangeEv(ptr dead_on_unwind noalias writable writeonly sret(%"struct.std::pair") align 8 captures(none) %0, ptr noundef nonnull readonly align 8 captures(none) dereferenceable(16) %1) local_unnamed_addr #1 align 2 {
  %3 = alloca %"class.pxrInternal_v0_24__pxrReserved__::PcpNodeRef", align 8
  %4 = alloca %"class.pxrInternal_v0_24__pxrReserved__::PcpNodeRef_ChildrenIterator", align 8
  %5 = load ptr, ptr %1, align 8
  %6 = getelementptr inbounds nuw i8, ptr %1, i64 8
  %7 = load i64, ptr %6, align 8
  store ptr %5, ptr %3, align 8
  %8 = getelementptr inbounds nuw i8, ptr %3, i64 8
  store i64 %7, ptr %8, align 8
  call void @_ZN32pxrInternal_v0_24__pxrReserved__27PcpNodeRef_ChildrenIteratorC1ERKNS_10PcpNodeRefEb(ptr noundef nonnull align 8 dereferenceable(24) %4, ptr noundef nonnull align 8 dereferenceable(16) %3, i1 noundef zeroext false)
  %9 = getelementptr inbounds nuw i8, ptr %0, i64 24
  call void @_ZN32pxrInternal_v0_24__pxrReserved__27PcpNodeRef_ChildrenIteratorC1ERKNS_10PcpNodeRefEb(ptr noundef nonnull align 8 dereferenceable(24) %9, ptr noundef nonnull align 8 dereferenceable(16) %3, i1 noundef zeroext true)
  call void @llvm.memcpy.p0.p0.i64(ptr noundef nonnull align 8 dereferenceable(48) %0, ptr noundef nonnull align 8 dereferenceable(24) %4, i64 24, i1 false)
  ret void
}